target datalayout = "e-m:e-p270:32:32-p271:32:32-p272:64:64-i64:64-i128:128-f80:128-n8:16:32:64-S128"
target triple = "x86_64-pc-linux-gnu"

%struct._zval_struct = type { %union._zend_value, %union.anon, %union.anon.2 }
%union._zend_value = type { i64 }
%union.anon = type { i32 }
%union.anon.2 = type { i32 }
%struct._zend_refcounted_h = type { i32, %union.anon.3 }
%union.anon.3 = type { i32 }
%struct._zend_string = type { %struct._zend_refcounted_h, i64, i64, [1 x i8] }

; Function Attrs: alwaysinline nounwind uwtable
define internal i32 @zend_gc_delref(ptr noundef %0) #13 {
  %2 = alloca ptr, align 8
  store ptr %0, ptr %2, align 8, !tbaa !152
  %3 = load ptr, ptr %2, align 8, !tbaa !152
  %4 = getelementptr inbounds nuw %struct._zend_refcounted_h, ptr %3, i32 0, i32 0
  %5 = load i32, ptr %4, align 4, !tbaa !154
  %6 = icmp ugt i32 %5, 0
  call void @llvm.assume(i1 %6)
  br label %7

7:                                                ; preds = %1
  br label %8

8:                                                ; preds = %7
  %9 = load ptr, ptr %2, align 8, !tbaa !152
  %10 = getelementptr inbounds nuw %struct._zend_refcounted_h, ptr %9, i32 0, i32 0
  %11 = load i32, ptr %10, align 4, !tbaa !154
  %12 = add i32 %11, -1
  store i32 %12, ptr %10, align 4, !tbaa !154
  ret i32 %12
}

; Function Attrs: alwaysinline nounwind uwtable
define internal i32 @zval_gc_flags(i32 noundef %0) #13 {
  %2 = alloca i32, align 4
  store i32 %0, ptr %2, align 4, !tbaa !117
  %3 = load i32, ptr %2, align 4, !tbaa !117
  %4 = lshr i32 %3, 0
  %5 = and i32 %4, 1008
  ret i32 %5
}

; Function Attrs: alwaysinline nounwind uwtable
define internal void @zend_string_release_ex(ptr noundef %0, i1 noundef zeroext %1) #13 {
  %3 = alloca ptr, align 8
  %4 = alloca i8, align 1
  store ptr %0, ptr %3, align 8, !tbaa !104
  %5 = zext i1 %1 to i8
  store i8 %5, ptr %4, align 1, !tbaa !69
  %6 = load ptr, ptr %3, align 8, !tbaa !104
  %7 = getelementptr inbounds nuw %struct._zend_string, ptr %6, i32 0, i32 0
  %8 = getelementptr inbounds nuw %struct._zend_refcounted_h, ptr %7, i32 0, i32 1
  %9 = load i32, ptr %8, align 4, !tbaa !11
  %10 = call i32 @zval_gc_flags(i32 noundef %9)
  %11 = and i32 %10, 64
  %12 = icmp ne i32 %11, 0
  br i1 %12, label %27, label %13

13:                                               ; preds = %2
  %14 = load ptr, ptr %3, align 8, !tbaa !104
  %15 = getelementptr inbounds nuw %struct._zend_string, ptr %14, i32 0, i32 0
  %16 = call i32 @zend_gc_delref(ptr noundef %15)
  %17 = icmp eq i32 %16, 0
  br i1 %17, label %18, label %26

18:                                               ; preds = %13
  %19 = load i8, ptr %4, align 1, !tbaa !69, !range !70, !noundef !71
  %20 = trunc i8 %19 to i1
  br i1 %20, label %21, label %23

21:                                               ; preds = %18
  %22 = load ptr, ptr %3, align 8, !tbaa !104
  call void @free(ptr noundef %22) #20
  br label %25

23:                                               ; preds = %18
  %24 = load ptr, ptr %3, align 8, !tbaa !104
  call void @_efree(ptr noundef %24)
  br label %25

25:                                               ; preds = %23, %21
  br label %26

26:                                               ; preds = %25, %13
  br label %27

27:                                               ; preds = %26, %2
  ret void
}

; Function Attrs: nounwind uwtable
define internal void @cli_header_value_dtor(ptr noundef %0) #0 {
  %2 = alloca ptr, align 8
  store ptr %0, ptr %2, align 8, !tbaa !9
  %3 = load ptr, ptr %2, align 8, !tbaa !9
  %4 = getelementptr inbounds nuw %struct._zval_struct, ptr %3, i32 0, i32 0
  %5 = load ptr, ptr %4, align 8, !tbaa !11
  call void @zend_string_release_ex(ptr noundef %5, i1 noundef zeroext true)
  ret void
}